; Function Attrs: nounwind uwtable
define i32 @_php_stream_stat(ptr noundef %0, ptr noundef %1) local_unnamed_addr #2 {
  tail call void @llvm.memset.p0.i64(ptr noundef nonnull align 8 dereferenceable(144) %1, i8 0, i64 144, i1 false)
  %3 = getelementptr inbounds i8, ptr %0, i64 64
  %4 = load ptr, ptr %3, align 8
  %.not = icmp eq ptr %4, null
  br i1 %.not, label %11, label %5

5:                                                ; preds = %2
  %6 = load ptr, ptr %4, align 8
  %7 = getelementptr inbounds i8, ptr %6, i64 16
  %8 = load ptr, ptr %7, align 8
  %.not14 = icmp eq ptr %8, null
  br i1 %.not14, label %11, label %9

9:                                                ; preds = %5
  %10 = tail call i32 %8(ptr noundef nonnull %4, ptr noundef nonnull %0, ptr noundef nonnull %1) #27
  br label %18

11:                                               ; preds = %5, %2
  %12 = load ptr, ptr %0, align 8
  %13 = getelementptr inbounds i8, ptr %12, i64 56
  %14 = load ptr, ptr %13, align 8
  %15 = icmp eq ptr %14, null
  br i1 %15, label %18, label %16

16:                                               ; preds = %11
  %17 = tail call i32 %14(ptr noundef nonnull %0, ptr noundef nonnull %1) #27
  br label %18

18:                                               ; preds = %11, %16, %9
  %.0 = phi i32 [ %10, %9 ], [ %17, %16 ], [ -1, %11 ]
  ret i32 %.0
}